; ModuleID = '5/511.c'
source_filename = "5/511.c"
target datalayout = "e-m:e-p270:32:32-p271:32:32-p272:64:64-i64:64-f80:128-n8:16:32:64-S128"
target triple = "x86_64-pc-linux-gnu"

@.str = private unnamed_addr constant [4 x i8] c"%lf\00", align 1
@.str.1 = private unnamed_addr constant [3 x i8] c"%s\00", align 1
@.str.2 = private unnamed_addr constant [6 x i8] c"error\00", align 1
@.str.3 = private unnamed_addr constant [4 x i8] c"yes\00", align 1
@.str.4 = private unnamed_addr constant [3 x i8] c"no\00", align 1

; Function Attrs: noinline nounwind uwtable
define dso_local i32 @main() #0 {
  %1 = alloca i32, align 4
  %2 = alloca i32, align 4
  %3 = alloca i32, align 4
  %4 = alloca i32, align 4
  %5 = alloca i32, align 4
  %6 = alloca i32, align 4
  %7 = alloca i32, align 4
  %8 = alloca [2 x [501 x i8]], align 16
  %9 = alloca double, align 8
  %10 = alloca double, align 8
  %11 = alloca double, align 8
  store i32 0, i32* %1, align 4
  store i32 1, i32* %7, align 4
  %12 = call i32 (i8*, ...) @__isoc99_scanf(i8* getelementptr inbounds ([4 x i8], [4 x i8]* @.str, i64 0, i64 0), double* %9)
  %13 = getelementptr inbounds [2 x [501 x i8]], [2 x [501 x i8]]* %8, i64 0, i64 0
  %14 = getelementptr inbounds [501 x i8], [501 x i8]* %13, i64 0, i64 0
  %15 = call i32 (i8*, ...) @__isoc99_scanf(i8* getelementptr inbounds ([3 x i8], [3 x i8]* @.str.1, i64 0, i64 0), i8* %14)
  %16 = getelementptr inbounds [2 x [501 x i8]], [2 x [501 x i8]]* %8, i64 0, i64 1
  %17 = getelementptr inbounds [501 x i8], [501 x i8]* %16, i64 0, i64 0
  %18 = call i32 (i8*, ...) @__isoc99_scanf(i8* getelementptr inbounds ([3 x i8], [3 x i8]* @.str.1, i64 0, i64 0), i8* %17)
  %19 = getelementptr inbounds [2 x [501 x i8]], [2 x [501 x i8]]* %8, i64 0, i64 0
  %20 = getelementptr inbounds [501 x i8], [501 x i8]* %19, i64 0, i64 0
  %21 = call i64 @strlen(i8* %20) #3
  %22 = trunc i64 %21 to i32
  store i32 %22, i32* %4, align 4
  %23 = getelementptr inbounds [2 x [501 x i8]], [2 x [501 x i8]]* %8, i64 0, i64 1
  %24 = getelementptr inbounds [501 x i8], [501 x i8]* %23, i64 0, i64 0
  %25 = call i64 @strlen(i8* %24) #3
  %26 = trunc i64 %25 to i32
  store i32 %26, i32* %5, align 4
  %27 = load i32, i32* %4, align 4
  %28 = load i32, i32* %5, align 4
  %29 = icmp ne i32 %27, %28
  br i1 %29, label %30, label %32

30:                                               ; preds = %0
  %31 = call i32 (i8*, ...) @printf(i8* getelementptr inbounds ([6 x i8], [6 x i8]* @.str.2, i64 0, i64 0))
  br label %125

32:                                               ; preds = %0
  store i32 0, i32* %6, align 4
  br label %33

33:                                               ; preds = %91, %32
  %34 = load i32, i32* %6, align 4
  %35 = icmp slt i32 %34, 2
  br i1 %35, label %36, label %94

36:                                               ; preds = %33
  store i32 0, i32* %2, align 4
  br label %37

37:                                               ; preds = %87, %36
  %38 = load i32, i32* %2, align 4
  %39 = load i32, i32* %4, align 4
  %40 = icmp slt i32 %38, %39
  br i1 %40, label %41, label %90

41:                                               ; preds = %37
  %42 = load i32, i32* %6, align 4
  %43 = sext i32 %42 to i64
  %44 = getelementptr inbounds [2 x [501 x i8]], [2 x [501 x i8]]* %8, i64 0, i64 %43
  %45 = load i32, i32* %2, align 4
  %46 = sext i32 %45 to i64
  %47 = getelementptr inbounds [501 x i8], [501 x i8]* %44, i64 0, i64 %46
  %48 = load i8, i8* %47, align 1
  %49 = sext i8 %48 to i32
  %50 = icmp ne i32 %49, 65
  br i1 %50, label %51, label %82

51:                                               ; preds = %41
  %52 = load i32, i32* %6, align 4
  %53 = sext i32 %52 to i64
  %54 = getelementptr inbounds [2 x [501 x i8]], [2 x [501 x i8]]* %8, i64 0, i64 %53
  %55 = load i32, i32* %2, align 4
  %56 = sext i32 %55 to i64
  %57 = getelementptr inbounds [501 x i8], [501 x i8]* %54, i64 0, i64 %56
  %58 = load i8, i8* %57, align 1
  %59 = sext i8 %58 to i32
  %60 = icmp ne i32 %59, 84
  br i1 %60, label %61, label %82

61:                                               ; preds = %51
  %62 = load i32, i32* %6, align 4
  %63 = sext i32 %62 to i64
  %64 = getelementptr inbounds [2 x [501 x i8]], [2 x [501 x i8]]* %8, i64 0, i64 %63
  %65 = load i32, i32* %2, align 4
  %66 = sext i32 %65 to i64
  %67 = getelementptr inbounds [501 x i8], [501 x i8]* %64, i64 0, i64 %66
  %68 = load i8, i8* %67, align 1
  %69 = sext i8 %68 to i32
  %70 = icmp ne i32 %69, 67
  br i1 %70, label %71, label %82

71:                                               ; preds = %61
  %72 = load i32, i32* %6, align 4
  %73 = sext i32 %72 to i64
  %74 = getelementptr inbounds [2 x [501 x i8]], [2 x [501 x i8]]* %8, i64 0, i64 %73
  %75 = load i32, i32* %2, align 4
  %76 = sext i32 %75 to i64
  %77 = getelementptr inbounds [501 x i8], [501 x i8]* %74, i64 0, i64 %76
  %78 = load i8, i8* %77, align 1
  %79 = sext i8 %78 to i32
  %80 = icmp ne i32 %79, 71
  br i1 %80, label %81, label %82

81:                                               ; preds = %71
  store i32 0, i32* %7, align 4
  br label %90

82:                                               ; preds = %71, %61, %51, %41
  %83 = load i32, i32* %7, align 4
  %84 = icmp eq i32 %83, 0
  br i1 %84, label %85, label %86

85:                                               ; preds = %82
  br label %90

86:                                               ; preds = %82
  br label %87

87:                                               ; preds = %86
  %88 = load i32, i32* %2, align 4
  %89 = add nsw i32 %88, 1
  store i32 %89, i32* %2, align 4
  br label %37

90:                                               ; preds = %85, %81, %37
  br label %91

91:                                               ; preds = %90
  %92 = load i32, i32* %6, align 4
  %93 = add nsw i32 %92, 1
  store i32 %93, i32* %6, align 4
  br label %33

94:                                               ; preds = %33
  %95 = load i32, i32* %7, align 4
  %96 = icmp eq i32 %95, 1
  br i1 %96, label %97, label %124

97:                                               ; preds = %94
  store i32 0, i32* %2, align 4
  br label %98

98:                                               ; preds = %120, %97
  %99 = load i32, i32* %2, align 4
  %100 = load i32, i32* %4, align 4
  %101 = icmp slt i32 %99, %100
  br i1 %101, label %102, label %123

102:                                              ; preds = %98
  %103 = getelementptr inbounds [2 x [501 x i8]], [2 x [501 x i8]]* %8, i64 0, i64 0
  %104 = load i32, i32* %2, align 4
  %105 = sext i32 %104 to i64
  %106 = getelementptr inbounds [501 x i8], [501 x i8]* %103, i64 0, i64 %105
  %107 = load i8, i8* %106, align 1
  %108 = sext i8 %107 to i32
  %109 = getelementptr inbounds [2 x [501 x i8]], [2 x [501 x i8]]* %8, i64 0, i64 1
  %110 = load i32, i32* %2, align 4
  %111 = sext i32 %110 to i64
  %112 = getelementptr inbounds [501 x i8], [501 x i8]* %109, i64 0, i64 %111
  %113 = load i8, i8* %112, align 1
  %114 = sext i8 %113 to i32
  %115 = icmp eq i32 %108, %114
  br i1 %115, label %116, label %119

116:                                              ; preds = %102
  %117 = load double, double* %10, align 8
  %118 = fadd double %117, 1.000000e+00
  store double %118, double* %10, align 8
  br label %119

119:                                              ; preds = %116, %102
  br label %120

120:                                              ; preds = %119
  %121 = load i32, i32* %2, align 4
  %122 = add nsw i32 %121, 1
  store i32 %122, i32* %2, align 4
  br label %98

123:                                              ; preds = %98
  br label %124

124:                                              ; preds = %123, %94
  br label %125

125:                                              ; preds = %124, %30
  %126 = load i32, i32* %4, align 4
  %127 = load i32, i32* %5, align 4
  %128 = icmp eq i32 %126, %127
  br i1 %128, label %129, label %149

129:                                              ; preds = %125
  %130 = load i32, i32* %7, align 4
  %131 = icmp eq i32 %130, 1
  br i1 %131, label %132, label %146

132:                                              ; preds = %129
  %133 = load double, double* %10, align 8
  %134 = fmul double 1.000000e+00, %133
  %135 = load i32, i32* %4, align 4
  %136 = sitofp i32 %135 to double
  %137 = fdiv double %134, %136
  store double %137, double* %11, align 8
  %138 = load double, double* %11, align 8
  %139 = load double, double* %9, align 8
  %140 = fcmp ogt double %138, %139
  br i1 %140, label %141, label %143

141:                                              ; preds = %132
  %142 = call i32 (i8*, ...) @printf(i8* getelementptr inbounds ([4 x i8], [4 x i8]* @.str.3, i64 0, i64 0))
  br label %145

143:                                              ; preds = %132
  %144 = call i32 (i8*, ...) @printf(i8* getelementptr inbounds ([3 x i8], [3 x i8]* @.str.4, i64 0, i64 0))
  br label %145

145:                                              ; preds = %143, %141
  br label %148

146:                                              ; preds = %129
  %147 = call i32 (i8*, ...) @printf(i8* getelementptr inbounds ([6 x i8], [6 x i8]* @.str.2, i64 0, i64 0))
  br label %148

148:                                              ; preds = %146, %145
  br label %149

149:                                              ; preds = %148, %125
  ret i32 0
}

declare dso_local i32 @__isoc99_scanf(i8*, ...) #1

; Function Attrs: nounwind readonly
declare dso_local i64 @strlen(i8*) #2

declare dso_local i32 @printf(i8*, ...) #1


!llvm.module.flags = !{!0}
!llvm.ident = !{!1}

!0 = !{i32 1, !"wchar_size", i32 4}
!1 = !{!"clang version 10.0.0-4ubuntu1 "}
